target datalayout = "e-m:e-p270:32:32-p271:32:32-p272:64:64-i64:64-i128:128-f80:128-n8:16:32:64-S128"
target triple = "x86_64-pc-linux-gnu"

%struct.lxb_encoding_data = type { i32, ptr, ptr, ptr, ptr, ptr }
%struct._dom_lexbor_libxml2_bridge_application_data = type { ptr, ptr, ptr, i64, i64, %struct._dom_line_column_cache, i8 }
%struct._dom_line_column_cache = type { i64, i64, i64 }
%struct._dom_decoding_encoding_ctx = type { i8, %struct.lxb_encoding_encode_t, %struct.lxb_encoding_decode_t, ptr, ptr, [4096 x i8], [4096 x i32] }
%struct.lxb_encoding_encode_t = type { ptr, ptr, i64, i64, ptr, i64, i32 }
%struct.lxb_encoding_decode_t = type { ptr, ptr, i64, i64, ptr, i64, i32, i32, i8, i8, i32, %union.anon.8 }
%union.anon.8 = type { %struct.lxb_encoding_ctx_2022_jp_t }
%struct.lxb_encoding_ctx_2022_jp_t = type { i8, i8, i32, i32, i8 }
%struct._dom_character_encoding_data = type { ptr, i64 }
%struct.lxb_html_encoding_t = type { %struct.lexbor_array_obj_t, %struct.lexbor_array_obj_t }
%struct.lexbor_array_obj_t = type { ptr, i64, i64, i64 }
%struct.lxb_html_encoding_entry_t = type { ptr, ptr }

@lxb_encoding_res_map = external constant [43 x %struct.lxb_encoding_data], align 16
@dom_setup_parser_encoding_manually.replacement_codepoint = internal constant i32 65533, align 4

; Function Attrs: nounwind uwtable
define internal ptr @lexbor_array_obj_get(ptr noundef %0, i64 noundef %1) #0 {
  %3 = alloca ptr, align 8
  %4 = alloca ptr, align 8
  %5 = alloca i64, align 8
  store ptr %0, ptr %4, align 8
  store i64 %1, ptr %5, align 8
  %6 = load i64, ptr %5, align 8
  %7 = load ptr, ptr %4, align 8
  %8 = getelementptr inbounds %struct.lexbor_array_obj_t, ptr %7, i32 0, i32 2
  %9 = load i64, ptr %8, align 8
  %10 = icmp uge i64 %6, %9
  br i1 %10, label %11, label %12

11:                                               ; preds = %2
  store ptr null, ptr %3, align 8
  br label %22

12:                                               ; preds = %2
  %13 = load ptr, ptr %4, align 8
  %14 = getelementptr inbounds %struct.lexbor_array_obj_t, ptr %13, i32 0, i32 0
  %15 = load ptr, ptr %14, align 8
  %16 = load i64, ptr %5, align 8
  %17 = load ptr, ptr %4, align 8
  %18 = getelementptr inbounds %struct.lexbor_array_obj_t, ptr %17, i32 0, i32 3
  %19 = load i64, ptr %18, align 8
  %20 = mul i64 %16, %19
  %21 = getelementptr inbounds i8, ptr %15, i64 %20
  store ptr %21, ptr %3, align 8
  br label %22

22:                                               ; preds = %12, %11
  %23 = load ptr, ptr %3, align 8
  ret ptr %23
}

; Function Attrs: nounwind uwtable
define internal i32 @lxb_encoding_decode_replace_set(ptr noundef %0, ptr noundef %1, i64 noundef %2) #0 {
  %4 = alloca i32, align 4
  %5 = alloca ptr, align 8
  %6 = alloca ptr, align 8
  %7 = alloca i64, align 8
  store ptr %0, ptr %5, align 8
  store ptr %1, ptr %6, align 8
  store i64 %2, ptr %7, align 8
  %8 = load ptr, ptr %5, align 8
  %9 = getelementptr inbounds %struct.lxb_encoding_decode_t, ptr %8, i32 0, i32 1
  %10 = load ptr, ptr %9, align 8
  %11 = icmp eq ptr %10, null
  br i1 %11, label %18, label %12

12:                                               ; preds = %3
  %13 = load ptr, ptr %5, align 8
  %14 = getelementptr inbounds %struct.lxb_encoding_decode_t, ptr %13, i32 0, i32 2
  %15 = load i64, ptr %14, align 8
  %16 = load i64, ptr %7, align 8
  %17 = icmp ult i64 %15, %16
  br i1 %17, label %18, label %19

18:                                               ; preds = %12, %3
  store i32 15, ptr %4, align 4
  br label %26

19:                                               ; preds = %12
  %20 = load ptr, ptr %6, align 8
  %21 = load ptr, ptr %5, align 8
  %22 = getelementptr inbounds %struct.lxb_encoding_decode_t, ptr %21, i32 0, i32 4
  store ptr %20, ptr %22, align 8
  %23 = load i64, ptr %7, align 8
  %24 = load ptr, ptr %5, align 8
  %25 = getelementptr inbounds %struct.lxb_encoding_decode_t, ptr %24, i32 0, i32 5
  store i64 %23, ptr %25, align 8
  store i32 0, ptr %4, align 4
  br label %26

26:                                               ; preds = %19, %18
  %27 = load i32, ptr %4, align 4
  ret i32 %27
}

; Function Attrs: nounwind uwtable
define internal i32 @lxb_encoding_decode_init(ptr noundef %0, ptr noundef %1, ptr noundef %2, i64 noundef %3) #0 {
  %5 = alloca i32, align 4
  %6 = alloca ptr, align 8
  %7 = alloca ptr, align 8
  %8 = alloca ptr, align 8
  %9 = alloca i64, align 8
  store ptr %0, ptr %6, align 8
  store ptr %1, ptr %7, align 8
  store ptr %2, ptr %8, align 8
  store i64 %3, ptr %9, align 8
  %10 = load ptr, ptr %7, align 8
  %11 = icmp eq ptr %10, null
  br i1 %11, label %12, label %13

12:                                               ; preds = %4
  store i32 9, ptr %5, align 4
  br label %24

13:                                               ; preds = %4
  %14 = load ptr, ptr %6, align 8
  call void @llvm.memset.p0.i64(ptr align 8 %14, i8 0, i64 80, i1 false)
  %15 = load ptr, ptr %8, align 8
  %16 = load ptr, ptr %6, align 8
  %17 = getelementptr inbounds %struct.lxb_encoding_decode_t, ptr %16, i32 0, i32 1
  store ptr %15, ptr %17, align 8
  %18 = load i64, ptr %9, align 8
  %19 = load ptr, ptr %6, align 8
  %20 = getelementptr inbounds %struct.lxb_encoding_decode_t, ptr %19, i32 0, i32 2
  store i64 %18, ptr %20, align 8
  %21 = load ptr, ptr %7, align 8
  %22 = load ptr, ptr %6, align 8
  %23 = getelementptr inbounds %struct.lxb_encoding_decode_t, ptr %22, i32 0, i32 0
  store ptr %21, ptr %23, align 8
  store i32 0, ptr %5, align 4
  br label %24

24:                                               ; preds = %13, %12
  %25 = load i32, ptr %5, align 4
  ret i32 %25
}

; Function Attrs: nounwind uwtable
define internal ptr @lxb_html_encoding_meta_entry(ptr noundef %0, i64 noundef %1) #0 {
  %3 = alloca ptr, align 8
  %4 = alloca i64, align 8
  store ptr %0, ptr %3, align 8
  store i64 %1, ptr %4, align 8
  %5 = load ptr, ptr %3, align 8
  %6 = getelementptr inbounds %struct.lxb_html_encoding_t, ptr %5, i32 0, i32 1
  %7 = load i64, ptr %4, align 8
  %8 = call ptr @lexbor_array_obj_get(ptr noundef %6, i64 noundef %7)
  ret ptr %8
}

; Function Attrs: nounwind uwtable
define internal ptr @lxb_encoding_data(i32 noundef %0) #0 {
  %2 = alloca ptr, align 8
  %3 = alloca i32, align 4
  store i32 %0, ptr %3, align 4
  %4 = load i32, ptr %3, align 4
  %5 = icmp uge i32 %4, 43
  br i1 %5, label %6, label %7

6:                                                ; preds = %1
  store ptr null, ptr %2, align 8
  br label %11

7:                                                ; preds = %1
  %8 = load i32, ptr %3, align 4
  %9 = zext i32 %8 to i64
  %10 = getelementptr inbounds [43 x %struct.lxb_encoding_data], ptr @lxb_encoding_res_map, i64 0, i64 %9
  store ptr %10, ptr %2, align 8
  br label %11

11:                                               ; preds = %7, %6
  %12 = load ptr, ptr %2, align 8
  ret ptr %12
}

; Function Attrs: nounwind uwtable
define internal void @dom_setup_parser_encoding_manually(ptr noundef %0, ptr noundef %1, ptr noundef %2, ptr noundef %3) #0 {
  %5 = alloca ptr, align 8
  %6 = alloca ptr, align 8
  %7 = alloca ptr, align 8
  %8 = alloca ptr, align 8
  store ptr %0, ptr %5, align 8
  store ptr %1, ptr %6, align 8
  store ptr %2, ptr %7, align 8
  store ptr %3, ptr %8, align 8
  %9 = load ptr, ptr %6, align 8
  %10 = load ptr, ptr %7, align 8
  %11 = getelementptr inbounds %struct._dom_decoding_encoding_ctx, ptr %10, i32 0, i32 4
  store ptr %9, ptr %11, align 8
  %12 = load ptr, ptr %7, align 8
  %13 = getelementptr inbounds %struct._dom_decoding_encoding_ctx, ptr %12, i32 0, i32 2
  %14 = load ptr, ptr %7, align 8
  %15 = getelementptr inbounds %struct._dom_decoding_encoding_ctx, ptr %14, i32 0, i32 4
  %16 = load ptr, ptr %15, align 8
  %17 = load ptr, ptr %7, align 8
  %18 = getelementptr inbounds %struct._dom_decoding_encoding_ctx, ptr %17, i32 0, i32 6
  %19 = getelementptr inbounds [4096 x i32], ptr %18, i64 0, i64 0
  %20 = call i32 @lxb_encoding_decode_init(ptr noundef %13, ptr noundef %16, ptr noundef %19, i64 noundef 4096)
  %21 = load ptr, ptr %7, align 8
  %22 = getelementptr inbounds %struct._dom_decoding_encoding_ctx, ptr %21, i32 0, i32 2
  %23 = call i32 @lxb_encoding_decode_replace_set(ptr noundef %22, ptr noundef @dom_setup_parser_encoding_manually.replacement_codepoint, i64 noundef 1)
  %24 = load ptr, ptr %7, align 8
  %25 = getelementptr inbounds %struct._dom_decoding_encoding_ctx, ptr %24, i32 0, i32 4
  %26 = load ptr, ptr %25, align 8
  %27 = load ptr, ptr %7, align 8
  %28 = getelementptr inbounds %struct._dom_decoding_encoding_ctx, ptr %27, i32 0, i32 3
  %29 = load ptr, ptr %28, align 8
  %30 = icmp eq ptr %26, %29
  %31 = load ptr, ptr %7, align 8
  %32 = getelementptr inbounds %struct._dom_decoding_encoding_ctx, ptr %31, i32 0, i32 0
  %33 = zext i1 %30 to i8
  store i8 %33, ptr %32, align 8
  %34 = load ptr, ptr %7, align 8
  %35 = getelementptr inbounds %struct._dom_decoding_encoding_ctx, ptr %34, i32 0, i32 0
  %36 = load i8, ptr %35, align 8
  %37 = trunc i8 %36 to i1
  br i1 %37, label %38, label %44

38:                                               ; preds = %4
  %39 = load ptr, ptr %8, align 8
  %40 = getelementptr inbounds %struct._dom_lexbor_libxml2_bridge_application_data, ptr %39, i32 0, i32 1
  store ptr null, ptr %40, align 8
  %41 = load ptr, ptr %5, align 8
  %42 = load ptr, ptr %8, align 8
  %43 = getelementptr inbounds %struct._dom_lexbor_libxml2_bridge_application_data, ptr %42, i32 0, i32 2
  store ptr %41, ptr %43, align 8
  br label %52

44:                                               ; preds = %4
  %45 = load ptr, ptr %7, align 8
  %46 = getelementptr inbounds %struct._dom_decoding_encoding_ctx, ptr %45, i32 0, i32 6
  %47 = getelementptr inbounds [4096 x i32], ptr %46, i64 0, i64 0
  %48 = load ptr, ptr %8, align 8
  %49 = getelementptr inbounds %struct._dom_lexbor_libxml2_bridge_application_data, ptr %48, i32 0, i32 1
  store ptr %47, ptr %49, align 8
  %50 = load ptr, ptr %8, align 8
  %51 = getelementptr inbounds %struct._dom_lexbor_libxml2_bridge_application_data, ptr %50, i32 0, i32 2
  store ptr null, ptr %51, align 8
  br label %52

52:                                               ; preds = %44, %38
  ret void
}

; Function Attrs: nounwind uwtable
define internal { ptr, i64 } @dom_determine_encoding(ptr noundef %0, i64 noundef %1) #0 {
  %3 = alloca %struct._dom_character_encoding_data, align 8
  %4 = alloca ptr, align 8
  %5 = alloca i64, align 8
  %6 = alloca %struct.lxb_html_encoding_t, align 8
  %7 = alloca i32, align 4
  %8 = alloca ptr, align 8
  store ptr %0, ptr %4, align 8
  store i64 %1, ptr %5, align 8
  %9 = load i64, ptr %5, align 8
  %10 = icmp uge i64 %9, 3
  br i1 %10, label %11, label %33

11:                                               ; preds = %2
  %12 = load ptr, ptr %4, align 8
  %13 = getelementptr inbounds i8, ptr %12, i64 0
  %14 = load i8, ptr %13, align 1
  %15 = sext i8 %14 to i32
  %16 = icmp eq i32 %15, -17
  br i1 %16, label %17, label %33

17:                                               ; preds = %11
  %18 = load ptr, ptr %4, align 8
  %19 = getelementptr inbounds i8, ptr %18, i64 1
  %20 = load i8, ptr %19, align 1
  %21 = sext i8 %20 to i32
  %22 = icmp eq i32 %21, -69
  br i1 %22, label %23, label %33

23:                                               ; preds = %17
  %24 = load ptr, ptr %4, align 8
  %25 = getelementptr inbounds i8, ptr %24, i64 2
  %26 = load i8, ptr %25, align 1
  %27 = sext i8 %26 to i32
  %28 = icmp eq i32 %27, -65
  br i1 %28, label %29, label %33

29:                                               ; preds = %23
  %30 = call ptr @lxb_encoding_data(i32 noundef 27)
  %31 = getelementptr inbounds %struct._dom_character_encoding_data, ptr %3, i32 0, i32 0
  store ptr %30, ptr %31, align 8
  %32 = getelementptr inbounds %struct._dom_character_encoding_data, ptr %3, i32 0, i32 1
  store i64 3, ptr %32, align 8
  br label %122

33:                                               ; preds = %23, %17, %11, %2
  %34 = load i64, ptr %5, align 8
  %35 = icmp uge i64 %34, 2
  br i1 %35, label %36, label %70

36:                                               ; preds = %33
  %37 = load ptr, ptr %4, align 8
  %38 = getelementptr inbounds i8, ptr %37, i64 0
  %39 = load i8, ptr %38, align 1
  %40 = sext i8 %39 to i32
  %41 = icmp eq i32 %40, -2
  br i1 %41, label %42, label %52

42:                                               ; preds = %36
  %43 = load ptr, ptr %4, align 8
  %44 = getelementptr inbounds i8, ptr %43, i64 1
  %45 = load i8, ptr %44, align 1
  %46 = sext i8 %45 to i32
  %47 = icmp eq i32 %46, -1
  br i1 %47, label %48, label %52

48:                                               ; preds = %42
  %49 = call ptr @lxb_encoding_data(i32 noundef 25)
  %50 = getelementptr inbounds %struct._dom_character_encoding_data, ptr %3, i32 0, i32 0
  store ptr %49, ptr %50, align 8
  %51 = getelementptr inbounds %struct._dom_character_encoding_data, ptr %3, i32 0, i32 1
  store i64 2, ptr %51, align 8
  br label %122

52:                                               ; preds = %42, %36
  %53 = load ptr, ptr %4, align 8
  %54 = getelementptr inbounds i8, ptr %53, i64 0
  %55 = load i8, ptr %54, align 1
  %56 = sext i8 %55 to i32
  %57 = icmp eq i32 %56, -1
  br i1 %57, label %58, label %68

58:                                               ; preds = %52
  %59 = load ptr, ptr %4, align 8
  %60 = getelementptr inbounds i8, ptr %59, i64 1
  %61 = load i8, ptr %60, align 1
  %62 = sext i8 %61 to i32
  %63 = icmp eq i32 %62, -2
  br i1 %63, label %64, label %68

64:                                               ; preds = %58
  %65 = call ptr @lxb_encoding_data(i32 noundef 26)
  %66 = getelementptr inbounds %struct._dom_character_encoding_data, ptr %3, i32 0, i32 0
  store ptr %65, ptr %66, align 8
  %67 = getelementptr inbounds %struct._dom_character_encoding_data, ptr %3, i32 0, i32 1
  store i64 2, ptr %67, align 8
  br label %122

68:                                               ; preds = %58, %52
  br label %69

69:                                               ; preds = %68
  br label %70

70:                                               ; preds = %69, %33
  br label %71

71:                                               ; preds = %70
  %72 = call i32 @lxb_html_encoding_init(ptr noundef %6)
  store i32 %72, ptr %7, align 4
  %73 = load i32, ptr %7, align 4
  %74 = icmp ne i32 %73, 0
  br i1 %74, label %75, label %76

75:                                               ; preds = %71
  br label %118

76:                                               ; preds = %71
  %77 = load i64, ptr %5, align 8
  %78 = icmp ugt i64 %77, 1024
  br i1 %78, label %79, label %80

79:                                               ; preds = %76
  store i64 1024, ptr %5, align 8
  br label %80

80:                                               ; preds = %79, %76
  %81 = load ptr, ptr %4, align 8
  %82 = load ptr, ptr %4, align 8
  %83 = load i64, ptr %5, align 8
  %84 = getelementptr inbounds i8, ptr %82, i64 %83
  %85 = call i32 @lxb_html_encoding_determine(ptr noundef %6, ptr noundef %81, ptr noundef %84)
  store i32 %85, ptr %7, align 4
  %86 = load i32, ptr %7, align 4
  %87 = icmp ne i32 %86, 0
  br i1 %87, label %88, label %89

88:                                               ; preds = %80
  br label %116

89:                                               ; preds = %80
  %90 = call ptr @lxb_html_encoding_meta_entry(ptr noundef %6, i64 noundef 0)
  store ptr %90, ptr %8, align 8
  %91 = load ptr, ptr %8, align 8
  %92 = icmp eq ptr %91, null
  br i1 %92, label %93, label %94

93:                                               ; preds = %89
  br label %116

94:                                               ; preds = %89
  %95 = load ptr, ptr %8, align 8
  %96 = getelementptr inbounds %struct.lxb_html_encoding_entry_t, ptr %95, i32 0, i32 0
  %97 = load ptr, ptr %96, align 8
  %98 = load ptr, ptr %8, align 8
  %99 = getelementptr inbounds %struct.lxb_html_encoding_entry_t, ptr %98, i32 0, i32 1
  %100 = load ptr, ptr %99, align 8
  %101 = load ptr, ptr %8, align 8
  %102 = getelementptr inbounds %struct.lxb_html_encoding_entry_t, ptr %101, i32 0, i32 0
  %103 = load ptr, ptr %102, align 8
  %104 = ptrtoint ptr %100 to i64
  %105 = ptrtoint ptr %103 to i64
  %106 = sub i64 %104, %105
  %107 = call ptr @lxb_encoding_data_by_pre_name(ptr noundef %97, i64 noundef %106)
  %108 = getelementptr inbounds %struct._dom_character_encoding_data, ptr %3, i32 0, i32 0
  store ptr %107, ptr %108, align 8
  %109 = getelementptr inbounds %struct._dom_character_encoding_data, ptr %3, i32 0, i32 0
  %110 = load ptr, ptr %109, align 8
  %111 = icmp ne ptr %110, null
  br i1 %111, label %113, label %112

112:                                              ; preds = %94
  br label %116

113:                                              ; preds = %94
  %114 = getelementptr inbounds %struct._dom_character_encoding_data, ptr %3, i32 0, i32 1
  store i64 0, ptr %114, align 8
  %115 = call ptr @lxb_html_encoding_destroy(ptr noundef %6, i1 noundef zeroext false)
  br label %122

116:                                              ; preds = %112, %93, %88
  %117 = call ptr @lxb_html_encoding_destroy(ptr noundef %6, i1 noundef zeroext false)
  br label %118

118:                                              ; preds = %116, %75
  %119 = call ptr @lxb_encoding_data(i32 noundef 27)
  %120 = getelementptr inbounds %struct._dom_character_encoding_data, ptr %3, i32 0, i32 0
  store ptr %119, ptr %120, align 8
  %121 = getelementptr inbounds %struct._dom_character_encoding_data, ptr %3, i32 0, i32 1
  store i64 0, ptr %121, align 8
  br label %122

122:                                              ; preds = %118, %113, %64, %48, %29
  %123 = load { ptr, i64 }, ptr %3, align 8
  ret { ptr, i64 } %123
}

; Function Attrs: nounwind uwtable
define internal void @dom_setup_parser_encoding_implicitly(ptr noundef %0, ptr noundef %1, ptr noundef %2, ptr noundef %3) #0 {
  %5 = alloca ptr, align 8
  %6 = alloca ptr, align 8
  %7 = alloca ptr, align 8
  %8 = alloca ptr, align 8
  %9 = alloca ptr, align 8
  %10 = alloca %struct._dom_character_encoding_data, align 8
  store ptr %0, ptr %5, align 8
  store ptr %1, ptr %6, align 8
  store ptr %2, ptr %7, align 8
  store ptr %3, ptr %8, align 8
  %11 = load ptr, ptr %5, align 8
  %12 = load ptr, ptr %11, align 8
  store ptr %12, ptr %9, align 8
  %13 = load ptr, ptr %9, align 8
  %14 = load ptr, ptr %6, align 8
  %15 = load i64, ptr %14, align 8
  %16 = call { ptr, i64 } @dom_determine_encoding(ptr noundef %13, i64 noundef %15)
  %17 = getelementptr inbounds { ptr, i64 }, ptr %10, i32 0, i32 0
  %18 = extractvalue { ptr, i64 } %16, 0
  store ptr %18, ptr %17, align 8
  %19 = getelementptr inbounds { ptr, i64 }, ptr %10, i32 0, i32 1
  %20 = extractvalue { ptr, i64 } %16, 1
  store i64 %20, ptr %19, align 8
  %21 = getelementptr inbounds %struct._dom_character_encoding_data, ptr %10, i32 0, i32 1
  %22 = load i64, ptr %21, align 8
  %23 = load ptr, ptr %5, align 8
  %24 = load ptr, ptr %23, align 8
  %25 = getelementptr inbounds i8, ptr %24, i64 %22
  store ptr %25, ptr %23, align 8
  %26 = getelementptr inbounds %struct._dom_character_encoding_data, ptr %10, i32 0, i32 1
  %27 = load i64, ptr %26, align 8
  %28 = load ptr, ptr %6, align 8
  %29 = load i64, ptr %28, align 8
  %30 = sub i64 %29, %27
  store i64 %30, ptr %28, align 8
  %31 = load ptr, ptr %9, align 8
  %32 = getelementptr inbounds %struct._dom_character_encoding_data, ptr %10, i32 0, i32 0
  %33 = load ptr, ptr %32, align 8
  %34 = load ptr, ptr %7, align 8
  %35 = load ptr, ptr %8, align 8
  call void @dom_setup_parser_encoding_manually(ptr noundef %31, ptr noundef %33, ptr noundef %34, ptr noundef %35)
  ret void
}