; Function Attrs: nounwind uwtable
define internal fastcc void @dom_setup_parser_encoding_implicitly(ptr nocapture noundef %0, ptr nocapture noundef %1, ptr noundef %2, ptr nocapture noundef writeonly %3) unnamed_addr #0 {
  %5 = alloca %struct.lxb_html_encoding_t, align 8
  %6 = load ptr, ptr %0, align 8
  %7 = load i64, ptr %1, align 8
  call void @llvm.lifetime.start.p0(i64 64, ptr nonnull %5)
  %8 = icmp ugt i64 %7, 2
  br i1 %8, label %9, label %20

9:                                                ; preds = %4
  %10 = load i8, ptr %6, align 1
  %11 = icmp eq i8 %10, -17
  br i1 %11, label %12, label %.thread.i

12:                                               ; preds = %9
  %13 = getelementptr inbounds i8, ptr %6, i64 1
  %14 = load i8, ptr %13, align 1
  %15 = icmp eq i8 %14, -69
  br i1 %15, label %16, label %.thread22.i

16:                                               ; preds = %12
  %17 = getelementptr inbounds i8, ptr %6, i64 2
  %18 = load i8, ptr %17, align 1
  %19 = icmp eq i8 %18, -65
  br i1 %19, label %dom_setup_parser_encoding_manually.exit, label %.thread22.i

20:                                               ; preds = %4
  %21 = icmp eq i64 %7, 2
  br i1 %21, label %..threadthread-pre-split_crit_edge.i, label %.thread22.i

..threadthread-pre-split_crit_edge.i:             ; preds = %20
  %.pr.pre.i = load i8, ptr %6, align 1
  br label %.thread.i

.thread.i:                                        ; preds = %..threadthread-pre-split_crit_edge.i, %9
  %22 = phi i8 [ %10, %9 ], [ %.pr.pre.i, %..threadthread-pre-split_crit_edge.i ]
  switch i8 %22, label %.thread22.i [
    i8 -2, label %23
    i8 -1, label %27
  ]

23:                                               ; preds = %.thread.i
  %24 = getelementptr inbounds i8, ptr %6, i64 1
  %25 = load i8, ptr %24, align 1
  %26 = icmp eq i8 %25, -1
  br i1 %26, label %dom_setup_parser_encoding_manually.exit, label %.thread22.i

27:                                               ; preds = %.thread.i
  %28 = getelementptr inbounds i8, ptr %6, i64 1
  %29 = load i8, ptr %28, align 1
  %30 = icmp eq i8 %29, -2
  br i1 %30, label %dom_setup_parser_encoding_manually.exit, label %.thread22.i

.thread22.i:                                      ; preds = %27, %23, %.thread.i, %20, %16, %12
  %31 = call i32 @lxb_html_encoding_init(ptr noundef nonnull %5) #11
  %.not.i = icmp eq i32 %31, 0
  br i1 %.not.i, label %32, label %dom_setup_parser_encoding_manually.exit

32:                                               ; preds = %.thread22.i
  %spec.store.select.i = call i64 @llvm.umin.i64(i64 %7, i64 1024)
  %33 = getelementptr inbounds i8, ptr %6, i64 %spec.store.select.i
  %34 = call i32 @lxb_html_encoding_determine(ptr noundef nonnull %5, ptr noundef %6, ptr noundef %33) #11
  %.not19.i = icmp eq i32 %34, 0
  br i1 %.not19.i, label %35, label %49

35:                                               ; preds = %32
  %36 = getelementptr inbounds i8, ptr %5, i64 32
  %.val.i = load ptr, ptr %36, align 8
  %37 = getelementptr inbounds i8, ptr %5, i64 48
  %.val21.i = load i64, ptr %37, align 8
  %38 = icmp eq i64 %.val21.i, 0
  %39 = icmp eq ptr %.val.i, null
  %40 = select i1 %38, i1 true, i1 %39
  br i1 %40, label %49, label %41

41:                                               ; preds = %35
  %42 = load ptr, ptr %.val.i, align 8
  %43 = getelementptr inbounds i8, ptr %.val.i, i64 8
  %44 = load ptr, ptr %43, align 8
  %45 = ptrtoint ptr %44 to i64
  %46 = ptrtoint ptr %42 to i64
  %47 = sub i64 %45, %46
  %48 = call ptr @lxb_encoding_data_by_pre_name(ptr noundef %42, i64 noundef %47) #11
  %.not20.i = icmp eq ptr %48, null
  br i1 %.not20.i, label %49, label %.sink.split.i

49:                                               ; preds = %41, %35, %32
  br label %.sink.split.i

.sink.split.i:                                    ; preds = %49, %41
  %.sroa.0.0.ph.i = phi ptr [ getelementptr inbounds ([43 x %struct.lxb_encoding_data], ptr @lxb_encoding_res_map, i64 0, i64 27), %49 ], [ %48, %41 ]
  %50 = call ptr @lxb_html_encoding_destroy(ptr noundef nonnull %5, i1 noundef zeroext false) #11
  br label %dom_setup_parser_encoding_manually.exit

dom_setup_parser_encoding_manually.exit:          ; preds = %16, %23, %27, %.thread22.i, %.sink.split.i
  %.sroa.0.0.i = phi ptr [ getelementptr inbounds ([43 x %struct.lxb_encoding_data], ptr @lxb_encoding_res_map, i64 0, i64 27), %16 ], [ getelementptr inbounds ([43 x %struct.lxb_encoding_data], ptr @lxb_encoding_res_map, i64 0, i64 25), %23 ], [ getelementptr inbounds ([43 x %struct.lxb_encoding_data], ptr @lxb_encoding_res_map, i64 0, i64 26), %27 ], [ getelementptr inbounds ([43 x %struct.lxb_encoding_data], ptr @lxb_encoding_res_map, i64 0, i64 27), %.thread22.i ], [ %.sroa.0.0.ph.i, %.sink.split.i ]
  %.sroa.7.0.i = phi i64 [ 3, %16 ], [ 2, %23 ], [ 2, %27 ], [ 0, %.thread22.i ], [ 0, %.sink.split.i ]
  call void @llvm.lifetime.end.p0(i64 64, ptr nonnull %5)
  %51 = load ptr, ptr %0, align 8
  %52 = getelementptr inbounds i8, ptr %51, i64 %.sroa.7.0.i
  store ptr %52, ptr %0, align 8
  %53 = load i64, ptr %1, align 8
  %54 = sub i64 %53, %.sroa.7.0.i
  store i64 %54, ptr %1, align 8
  %55 = getelementptr inbounds i8, ptr %2, i64 152
  store ptr %.sroa.0.0.i, ptr %55, align 8
  %56 = getelementptr inbounds i8, ptr %2, i64 4256
  %57 = getelementptr inbounds i8, ptr %2, i64 64
  %58 = getelementptr inbounds i8, ptr %2, i64 88
  call void @llvm.memset.p0.i64(ptr noundef nonnull align 8 dereferenceable(80) %58, i8 0, i64 56, i1 false)
  %59 = getelementptr inbounds i8, ptr %2, i64 72
  store ptr %56, ptr %59, align 8
  %60 = getelementptr inbounds i8, ptr %2, i64 80
  store i64 4096, ptr %60, align 8
  store ptr %.sroa.0.0.i, ptr %57, align 8
  %61 = getelementptr inbounds i8, ptr %2, i64 96
  store ptr @dom_setup_parser_encoding_manually.replacement_codepoint, ptr %61, align 8
  %62 = getelementptr inbounds i8, ptr %2, i64 104
  store i64 1, ptr %62, align 8
  %63 = getelementptr inbounds i8, ptr %2, i64 144
  %64 = load ptr, ptr %63, align 8
  %65 = icmp eq ptr %64, %.sroa.0.0.i
  %66 = zext i1 %65 to i8
  store i8 %66, ptr %2, align 8
  %spec.select.i = select i1 %65, ptr null, ptr %56
  %spec.select18.i = select i1 %65, ptr %6, ptr null
  %67 = getelementptr inbounds i8, ptr %3, i64 8
  store ptr %spec.select.i, ptr %67, align 8
  %68 = getelementptr inbounds i8, ptr %3, i64 16
  store ptr %spec.select18.i, ptr %68, align 8
  ret void
}